target datalayout = "e-m:e-p270:32:32-p271:32:32-p272:64:64-i64:64-i128:128-f80:128-n8:16:32:64-S128"
target triple = "x86_64-pc-linux-gnu"

; Function Attrs: nounwind uwtable
define void @Dau_DecMoveFreeToLSB(ptr noundef %0, i32 noundef %1, ptr noundef %2, ptr noundef %3, i32 noundef %4, i32 noundef %5) #0 {
  %7 = alloca ptr, align 8
  %8 = alloca i32, align 4
  %9 = alloca ptr, align 8
  %10 = alloca ptr, align 8
  %11 = alloca i32, align 4
  %12 = alloca i32, align 4
  %13 = alloca i32, align 4
  %14 = alloca i32, align 4
  store ptr %0, ptr %7, align 8, !tbaa !3
  store i32 %1, ptr %8, align 4, !tbaa !8
  store ptr %2, ptr %9, align 8, !tbaa !10
  store ptr %3, ptr %10, align 8, !tbaa !10
  store i32 %4, ptr %11, align 4, !tbaa !8
  store i32 %5, ptr %12, align 4, !tbaa !8
  call void @llvm.lifetime.start.p0(i64 4, ptr %13) #11
  call void @llvm.lifetime.start.p0(i64 4, ptr %14) #11
  store i32 0, ptr %14, align 4, !tbaa !8
  store i32 0, ptr %13, align 4, !tbaa !8
  br label %15

15:                                               ; preds = %34, %6
  %16 = load i32, ptr %13, align 4, !tbaa !8
  %17 = load i32, ptr %8, align 4, !tbaa !8
  %18 = icmp slt i32 %16, %17
  br i1 %18, label %19, label %37

19:                                               ; preds = %15
  %20 = load i32, ptr %11, align 4, !tbaa !8
  %21 = load i32, ptr %13, align 4, !tbaa !8
  %22 = ashr i32 %20, %21
  %23 = and i32 %22, 1
  %24 = icmp ne i32 %23, 0
  br i1 %24, label %33, label %25

25:                                               ; preds = %19
  %26 = load ptr, ptr %7, align 8, !tbaa !3
  %27 = load i32, ptr %8, align 4, !tbaa !8
  %28 = load ptr, ptr %9, align 8, !tbaa !10
  %29 = load ptr, ptr %10, align 8, !tbaa !10
  %30 = load i32, ptr %13, align 4, !tbaa !8
  %31 = load i32, ptr %14, align 4, !tbaa !8
  %32 = add nsw i32 %31, 1
  store i32 %32, ptr %14, align 4, !tbaa !8
  call void @Abc_TtMoveVar(ptr noundef %26, i32 noundef %27, ptr noundef %28, ptr noundef %29, i32 noundef %30, i32 noundef %31)
  br label %33

33:                                               ; preds = %25, %19
  br label %34

34:                                               ; preds = %33
  %35 = load i32, ptr %13, align 4, !tbaa !8
  %36 = add nsw i32 %35, 1
  store i32 %36, ptr %13, align 4, !tbaa !8
  br label %15, !llvm.loop !42

37:                                               ; preds = %15
  call void @llvm.lifetime.end.p0(i64 4, ptr %14) #11
  call void @llvm.lifetime.end.p0(i64 4, ptr %13) #11
  ret void
}