; Function Attrs: nofree norecurse nosync nounwind memory(argmem: readwrite) uwtable
define void @Dau_DecMoveFreeToLSB(ptr noundef %0, i32 noundef %1, ptr noundef captures(none) %2, ptr noundef captures(none) %3, i32 noundef %4, i32 noundef %5) local_unnamed_addr #0 {
  %7 = icmp sgt i32 %1, 0
  br i1 %7, label %.lr.ph, label %._crit_edge

.lr.ph:                                           ; preds = %6, %12
  %.013 = phi i32 [ %.1, %12 ], [ 0, %6 ]
  %.01012 = phi i32 [ %13, %12 ], [ 0, %6 ]
  %8 = shl nuw i32 1, %.01012
  %9 = and i32 %8, %4
  %.not = icmp eq i32 %9, 0
  br i1 %.not, label %10, label %12

10:                                               ; preds = %.lr.ph
  %11 = add nsw i32 %.013, 1
  tail call fastcc void @Abc_TtMoveVar(ptr noundef %0, i32 noundef %1, ptr noundef %2, ptr noundef %3, i32 noundef %.01012, i32 noundef %.013)
  br label %12

12:                                               ; preds = %.lr.ph, %10
  %.1 = phi i32 [ %.013, %.lr.ph ], [ %11, %10 ]
  %13 = add nuw nsw i32 %.01012, 1
  %exitcond.not = icmp eq i32 %13, %1
  br i1 %exitcond.not, label %._crit_edge, label %.lr.ph, !llvm.loop !38

._crit_edge:                                      ; preds = %12, %6
  ret void
}